CCS PCM C Compiler, Version 5.015, 5967               08-Apr-24 09:39

               Filename:   C:\Users\Huriz\Documents\lector ADC\v2\main.lst

               ROM used:   778 words (38%)
                           Largest free fragment is 1270
               RAM used:   13 (10%) at main() level
                           36 (28%) worst case
               Stack used: 2 locations
               Stack size: 8

*
0000:  MOVLW  02
0001:  MOVWF  0A
0002:  GOTO   28C
0003:  NOP
.................... #include <12F683.h> 
.................... //////////// Standard Header file for the PIC12F683 device //////////////// 
.................... /////////////////////////////////////////////////////////////////////////// 
.................... ////        (C) Copyright 1996, 2013 Custom Computer Services          //// 
.................... //// This source code may only be used by licensed users of the CCS C  //// 
.................... //// compiler.  This source code may only be distributed to other      //// 
.................... //// licensed users of the CCS C compiler.  No other use, reproduction //// 
.................... //// or distribution is permitted without written permission.          //// 
.................... //// Derivative programs created using this software in object code    //// 
.................... //// form are not restricted in any way.                               //// 
.................... /////////////////////////////////////////////////////////////////////////// 
.................... #device PIC12F683 
0004:  BCF    0A.0
0005:  BCF    0A.1
0006:  BCF    0A.2
0007:  ADDWF  02,F
0008:  RETLW  41
0009:  RETLW  44
000A:  RETLW  43
000B:  RETLW  3A
000C:  RETLW  25
000D:  RETLW  4C
000E:  RETLW  75
000F:  RETLW  20
0010:  RETLW  2D
0011:  RETLW  00
*
0040:  MOVLW  8E
0041:  MOVWF  20
0042:  MOVF   2E,W
0043:  MOVWF  21
0044:  MOVF   2D,W
0045:  MOVWF  22
0046:  CLRF   23
0047:  MOVF   21,F
0048:  BTFSS  03.2
0049:  GOTO   054
004A:  MOVF   22,W
004B:  MOVWF  21
004C:  CLRF   22
004D:  MOVLW  08
004E:  SUBWF  20,F
004F:  MOVF   21,F
0050:  BTFSS  03.2
0051:  GOTO   054
0052:  CLRF   20
0053:  GOTO   05C
0054:  BCF    03.0
0055:  BTFSC  21.7
0056:  GOTO   05B
0057:  RLF    22,F
0058:  RLF    21,F
0059:  DECF   20,F
005A:  GOTO   054
005B:  BCF    21.7
005C:  GOTO   2BE (RETURN)
005D:  MOVF   38,W
005E:  BTFSC  03.2
005F:  GOTO   0CD
0060:  MOVWF  40
0061:  MOVF   3C,W
0062:  BTFSC  03.2
0063:  GOTO   0CD
0064:  ADDWF  40,F
0065:  BTFSC  03.0
0066:  GOTO   06E
0067:  MOVLW  7F
0068:  SUBWF  40,F
0069:  BTFSS  03.0
006A:  GOTO   0CD
006B:  BTFSC  03.2
006C:  GOTO   0CD
006D:  GOTO   072
006E:  MOVLW  81
006F:  ADDWF  40,F
0070:  BTFSC  03.0
0071:  GOTO   0CD
0072:  MOVF   40,W
0073:  MOVWF  20
0074:  CLRF   21
0075:  CLRF   22
0076:  CLRF   23
0077:  MOVF   39,W
0078:  MOVWF  44
0079:  BSF    44.7
007A:  MOVF   3A,W
007B:  MOVWF  43
007C:  MOVF   3B,W
007D:  MOVWF  42
007E:  MOVLW  18
007F:  MOVWF  40
0080:  CLRF   41
0081:  BTFSS  42.0
0082:  GOTO   09B
0083:  MOVF   3F,W
0084:  ADDWF  23,F
0085:  BTFSS  03.0
0086:  GOTO   08D
0087:  INCF   22,F
0088:  BTFSS  03.2
0089:  GOTO   08D
008A:  INCF   21,F
008B:  BTFSC  03.2
008C:  BSF    41.7
008D:  MOVF   3E,W
008E:  ADDWF  22,F
008F:  BTFSS  03.0
0090:  GOTO   094
0091:  INCF   21,F
0092:  BTFSC  03.2
0093:  BSF    41.7
0094:  MOVF   3D,W
0095:  MOVWF  3A
0096:  BSF    3A.7
0097:  MOVF   3A,W
0098:  ADDWF  21,F
0099:  BTFSC  03.0
009A:  BSF    41.7
009B:  RLF    41,F
009C:  RRF    21,F
009D:  RRF    22,F
009E:  RRF    23,F
009F:  RRF    44,F
00A0:  RRF    43,F
00A1:  RRF    42,F
00A2:  BCF    03.0
00A3:  DECFSZ 40,F
00A4:  GOTO   080
00A5:  MOVLW  01
00A6:  ADDWF  20,F
00A7:  BTFSC  03.0
00A8:  GOTO   0CD
00A9:  BTFSC  21.7
00AA:  GOTO   0B2
00AB:  RLF    44,F
00AC:  RLF    23,F
00AD:  RLF    22,F
00AE:  RLF    21,F
00AF:  DECF   20,F
00B0:  BTFSC  03.2
00B1:  GOTO   0CD
00B2:  BTFSS  44.7
00B3:  GOTO   0C3
00B4:  INCF   23,F
00B5:  BTFSS  03.2
00B6:  GOTO   0C3
00B7:  INCF   22,F
00B8:  BTFSS  03.2
00B9:  GOTO   0C3
00BA:  INCF   21,F
00BB:  BTFSS  03.2
00BC:  GOTO   0C3
00BD:  RRF    21,F
00BE:  RRF    22,F
00BF:  RRF    23,F
00C0:  INCF   20,F
00C1:  BTFSC  03.2
00C2:  GOTO   0CD
00C3:  MOVF   39,W
00C4:  MOVWF  41
00C5:  MOVF   3D,W
00C6:  XORWF  41,F
00C7:  BTFSS  41.7
00C8:  GOTO   0CB
00C9:  BSF    21.7
00CA:  GOTO   0D1
00CB:  BCF    21.7
00CC:  GOTO   0D1
00CD:  CLRF   20
00CE:  CLRF   21
00CF:  CLRF   22
00D0:  CLRF   23
00D1:  RETURN
*
00F4:  MOVF   04,W
00F5:  MOVWF  34
00F6:  SWAPF  2E,W
00F7:  IORLW  F0
00F8:  MOVWF  30
00F9:  ADDWF  30,F
00FA:  ADDLW  E2
00FB:  MOVWF  31
00FC:  ADDLW  32
00FD:  MOVWF  33
00FE:  MOVF   2E,W
00FF:  ANDLW  0F
0100:  ADDWF  31,F
0101:  ADDWF  31,F
0102:  ADDWF  33,F
0103:  ADDLW  E9
0104:  MOVWF  32
0105:  ADDWF  32,F
0106:  ADDWF  32,F
0107:  SWAPF  2D,W
0108:  ANDLW  0F
0109:  ADDWF  32,F
010A:  ADDWF  33,F
010B:  RLF    32,F
010C:  RLF    33,F
010D:  COMF   33,F
010E:  RLF    33,F
010F:  MOVF   2D,W
0110:  ANDLW  0F
0111:  ADDWF  33,F
0112:  RLF    30,F
0113:  MOVLW  07
0114:  MOVWF  2F
0115:  MOVLW  0A
0116:  ADDWF  33,F
0117:  DECF   32,F
0118:  BTFSS  03.0
0119:  GOTO   116
011A:  ADDWF  32,F
011B:  DECF   31,F
011C:  BTFSS  03.0
011D:  GOTO   11A
011E:  ADDWF  31,F
011F:  DECF   30,F
0120:  BTFSS  03.0
0121:  GOTO   11E
0122:  ADDWF  30,F
0123:  DECF   2F,F
0124:  BTFSS  03.0
0125:  GOTO   122
0126:  MOVLW  2F
0127:  MOVWF  04
0128:  MOVLW  07
0129:  ANDWF  34,W
012A:  BCF    34.6
012B:  ADDWF  04,F
012C:  MOVLW  33
012D:  SUBWF  04,W
012E:  BTFSC  03.2
012F:  BSF    34.6
0130:  MOVF   00,W
0131:  MOVWF  20
0132:  BTFSS  03.2
0133:  GOTO   13C
0134:  BTFSC  34.6
0135:  GOTO   13C
0136:  BTFSC  34.4
0137:  GOTO   148
0138:  BTFSC  34.3
0139:  GOTO   13C
013A:  MOVLW  20
013B:  GOTO   13F
013C:  BSF    34.3
013D:  BCF    34.4
013E:  MOVLW  30
013F:  ADDWF  20,F
0140:  CLRF   2E
0141:  MOVF   04,W
0142:  MOVWF  2D
0143:  MOVF   20,W
0144:  MOVWF  38
0145:  CALL   0D2
0146:  MOVF   2D,W
0147:  MOVWF  04
0148:  INCF   04,F
0149:  BTFSS  34.6
014A:  GOTO   12C
014B:  GOTO   2E9 (RETURN)
014C:  BTFSC  03.1
014D:  GOTO   150
014E:  MOVLW  40
014F:  MOVWF  04
0150:  CLRF   20
0151:  CLRF   21
0152:  CLRF   22
0153:  CLRF   23
0154:  CLRF   40
0155:  CLRF   41
0156:  CLRF   42
0157:  CLRF   43
0158:  MOVF   3F,W
0159:  IORWF  3E,W
015A:  IORWF  3D,W
015B:  IORWF  3C,W
015C:  BTFSC  03.2
015D:  GOTO   18E
015E:  MOVLW  20
015F:  MOVWF  44
0160:  BCF    03.0
0161:  RLF    38,F
0162:  RLF    39,F
0163:  RLF    3A,F
0164:  RLF    3B,F
0165:  RLF    40,F
0166:  RLF    41,F
0167:  RLF    42,F
0168:  RLF    43,F
0169:  MOVF   3F,W
016A:  SUBWF  43,W
016B:  BTFSS  03.2
016C:  GOTO   177
016D:  MOVF   3E,W
016E:  SUBWF  42,W
016F:  BTFSS  03.2
0170:  GOTO   177
0171:  MOVF   3D,W
0172:  SUBWF  41,W
0173:  BTFSS  03.2
0174:  GOTO   177
0175:  MOVF   3C,W
0176:  SUBWF  40,W
0177:  BTFSS  03.0
0178:  GOTO   188
0179:  MOVF   3C,W
017A:  SUBWF  40,F
017B:  MOVF   3D,W
017C:  BTFSS  03.0
017D:  INCFSZ 3D,W
017E:  SUBWF  41,F
017F:  MOVF   3E,W
0180:  BTFSS  03.0
0181:  INCFSZ 3E,W
0182:  SUBWF  42,F
0183:  MOVF   3F,W
0184:  BTFSS  03.0
0185:  INCFSZ 3F,W
0186:  SUBWF  43,F
0187:  BSF    03.0
0188:  RLF    20,F
0189:  RLF    21,F
018A:  RLF    22,F
018B:  RLF    23,F
018C:  DECFSZ 44,F
018D:  GOTO   160
018E:  MOVF   40,W
018F:  MOVWF  00
0190:  INCF   04,F
0191:  MOVF   41,W
0192:  MOVWF  00
0193:  INCF   04,F
0194:  MOVF   42,W
0195:  MOVWF  00
0196:  INCF   04,F
0197:  MOVF   43,W
0198:  MOVWF  00
0199:  RETURN
019A:  MOVF   04,W
019B:  MOVWF  32
019C:  MOVF   31,W
019D:  MOVWF  33
019E:  BTFSC  03.2
019F:  GOTO   1B9
01A0:  MOVF   30,W
01A1:  MOVWF  3B
01A2:  MOVF   2F,W
01A3:  MOVWF  3A
01A4:  MOVF   2E,W
01A5:  MOVWF  39
01A6:  MOVF   2D,W
01A7:  MOVWF  38
01A8:  CLRF   3F
01A9:  CLRF   3E
01AA:  MOVLW  20
01AB:  MOVWF  3D
01AC:  MOVLW  82
01AD:  MOVWF  3C
01AE:  CALL   05D
01AF:  MOVF   23,W
01B0:  MOVWF  30
01B1:  MOVF   22,W
01B2:  MOVWF  2F
01B3:  MOVF   21,W
01B4:  MOVWF  2E
01B5:  MOVF   20,W
01B6:  MOVWF  2D
01B7:  DECFSZ 33,F
01B8:  GOTO   1A0
01B9:  MOVF   30,W
01BA:  MOVWF  3B
01BB:  MOVF   2F,W
01BC:  MOVWF  3A
01BD:  MOVF   2E,W
01BE:  MOVWF  39
01BF:  MOVF   2D,W
01C0:  MOVWF  38
01C1:  MOVF   38,W
01C2:  SUBLW  B6
01C3:  MOVWF  38
01C4:  CLRF   23
01C5:  MOVF   39,W
01C6:  MOVWF  3C
01C7:  BSF    39.7
01C8:  BCF    03.0
01C9:  RRF    39,F
01CA:  RRF    3A,F
01CB:  RRF    3B,F
01CC:  RRF    23,F
01CD:  RRF    22,F
01CE:  RRF    21,F
01CF:  RRF    20,F
01D0:  DECFSZ 38,F
01D1:  GOTO   1C8
01D2:  BTFSS  3C.7
01D3:  GOTO   1DF
01D4:  COMF   20,F
01D5:  COMF   21,F
01D6:  COMF   22,F
01D7:  COMF   23,F
01D8:  INCF   20,F
01D9:  BTFSC  03.2
01DA:  INCF   21,F
01DB:  BTFSC  03.2
01DC:  INCF   22,F
01DD:  BTFSC  03.2
01DE:  INCF   23,F
01DF:  MOVF   23,W
01E0:  MOVWF  30
01E1:  MOVF   22,W
01E2:  MOVWF  2F
01E3:  MOVF   21,W
01E4:  MOVWF  2E
01E5:  MOVF   20,W
01E6:  MOVWF  2D
01E7:  BTFSS  30.7
01E8:  GOTO   1F6
01E9:  DECF   32,F
01EA:  BSF    32.5
01EB:  COMF   2D,F
01EC:  COMF   2E,F
01ED:  COMF   2F,F
01EE:  COMF   30,F
01EF:  INCF   2D,F
01F0:  BTFSC  03.2
01F1:  INCF   2E,F
01F2:  BTFSC  03.2
01F3:  INCF   2F,F
01F4:  BTFSC  03.2
01F5:  INCF   30,F
01F6:  MOVLW  3B
01F7:  MOVWF  37
01F8:  MOVLW  9A
01F9:  MOVWF  36
01FA:  MOVLW  CA
01FB:  MOVWF  35
01FC:  CLRF   34
01FD:  MOVLW  0A
01FE:  MOVWF  33
01FF:  MOVF   31,W
0200:  BTFSC  03.2
0201:  INCF   32,F
0202:  BSF    03.1
0203:  MOVLW  2D
0204:  MOVWF  04
0205:  MOVF   30,W
0206:  MOVWF  3B
0207:  MOVF   2F,W
0208:  MOVWF  3A
0209:  MOVF   2E,W
020A:  MOVWF  39
020B:  MOVF   2D,W
020C:  MOVWF  38
020D:  MOVF   37,W
020E:  MOVWF  3F
020F:  MOVF   36,W
0210:  MOVWF  3E
0211:  MOVF   35,W
0212:  MOVWF  3D
0213:  MOVF   34,W
0214:  MOVWF  3C
0215:  CALL   14C
0216:  MOVF   21,W
0217:  MOVF   20,F
0218:  BTFSS  03.2
0219:  GOTO   22D
021A:  INCF   31,W
021B:  SUBWF  33,W
021C:  BTFSC  03.2
021D:  GOTO   22D
021E:  MOVF   32,W
021F:  BTFSC  03.2
0220:  GOTO   22F
0221:  ANDLW  0F
0222:  SUBWF  33,W
0223:  BTFSC  03.2
0224:  GOTO   227
0225:  BTFSC  03.0
0226:  GOTO   25F
0227:  BTFSC  32.7
0228:  GOTO   25F
0229:  BTFSC  32.6
022A:  GOTO   22F
022B:  MOVLW  20
022C:  GOTO   25B
022D:  MOVLW  20
022E:  ANDWF  32,F
022F:  BTFSS  32.5
0230:  GOTO   23D
0231:  BCF    32.5
0232:  MOVF   31,W
0233:  BTFSS  03.2
0234:  DECF   32,F
0235:  MOVF   20,W
0236:  MOVWF  32
0237:  MOVLW  2D
0238:  MOVWF  38
0239:  CALL   0D2
023A:  MOVF   32,W
023B:  MOVWF  20
023C:  CLRF   32
023D:  MOVF   31,W
023E:  SUBWF  33,W
023F:  BTFSS  03.2
0240:  GOTO   24B
0241:  MOVF   20,W
0242:  MOVWF  32
0243:  MOVLW  2E
0244:  MOVWF  38
0245:  CALL   0D2
0246:  MOVF   32,W
0247:  MOVWF  20
0248:  MOVLW  20
0249:  ANDWF  32,F
024A:  MOVLW  00
024B:  MOVLW  30
024C:  BTFSS  32.5
024D:  GOTO   25B
024E:  BCF    32.5
024F:  MOVF   31,W
0250:  BTFSS  03.2
0251:  DECF   32,F
0252:  MOVF   20,W
0253:  MOVWF  32
0254:  MOVLW  2D
0255:  MOVWF  38
0256:  CALL   0D2
0257:  MOVF   32,W
0258:  MOVWF  20
0259:  CLRF   32
025A:  MOVLW  30
025B:  ADDWF  20,F
025C:  MOVF   20,W
025D:  MOVWF  38
025E:  CALL   0D2
025F:  BCF    03.1
0260:  MOVF   37,W
0261:  MOVWF  3B
0262:  MOVF   36,W
0263:  MOVWF  3A
0264:  MOVF   35,W
0265:  MOVWF  39
0266:  MOVF   34,W
0267:  MOVWF  38
0268:  CLRF   3F
0269:  CLRF   3E
026A:  CLRF   3D
026B:  MOVLW  0A
026C:  MOVWF  3C
026D:  CALL   14C
026E:  MOVF   23,W
026F:  MOVWF  37
0270:  MOVF   22,W
0271:  MOVWF  36
0272:  MOVF   21,W
0273:  MOVWF  35
0274:  MOVF   20,W
0275:  MOVWF  34
0276:  DECFSZ 33,F
0277:  GOTO   202
0278:  GOTO   2FF (RETURN)
....................  
.................... #list 
....................  
.................... #device adc=10 
.................... #FUSES NOWDT, INTRC_IO, NOCPD, NOPROTECT, NOMCLR, PUT, NOBROWNOUT, NOIESO, NOFCMEN 
.................... #use delay(clock=8000000) 
0279:  MOVLW  2D
027A:  MOVWF  04
027B:  MOVF   00,W
027C:  BTFSC  03.2
027D:  GOTO   28B
027E:  MOVLW  02
027F:  MOVWF  21
0280:  CLRF   20
0281:  DECFSZ 20,F
0282:  GOTO   281
0283:  DECFSZ 21,F
0284:  GOTO   280
0285:  MOVLW  97
0286:  MOVWF  20
0287:  DECFSZ 20,F
0288:  GOTO   287
0289:  DECFSZ 00,F
028A:  GOTO   27E
028B:  GOTO   308 (RETURN)
.................... #define ADC1   PIN_A0 
.................... //#define ADC1   PIN_A1 
.................... #define  TX   PIN_A2 
.................... #define  RX   PIN_A3 
.................... //#define ADC_TO_VOLT 0.00488758553275 // (5000.0 / 1023.0) / 1000.0 
.................... #define ADC_TO_VOLT 0.0031798631476 // (3.253.0 / 1023.0)  
.................... #use rs232(baud=9600,parity=N,xmit=PIN_A2,rcv=PIN_A3,bits=8) 
*
00D2:  BSF    03.5
00D3:  BCF    05.2
00D4:  BCF    03.5
00D5:  BCF    05.2
00D6:  MOVLW  08
00D7:  MOVWF  21
00D8:  GOTO   0D9
00D9:  NOP
00DA:  BSF    21.7
00DB:  GOTO   0EA
00DC:  BCF    21.7
00DD:  RRF    38,F
00DE:  BTFSC  03.0
00DF:  BSF    05.2
00E0:  BTFSS  03.0
00E1:  BCF    05.2
00E2:  BSF    21.6
00E3:  GOTO   0EA
00E4:  BCF    21.6
00E5:  DECFSZ 21,F
00E6:  GOTO   0DD
00E7:  GOTO   0E8
00E8:  NOP
00E9:  BSF    05.2
00EA:  MOVLW  3F
00EB:  MOVWF  04
00EC:  DECFSZ 04,F
00ED:  GOTO   0EC
00EE:  NOP
00EF:  BTFSC  21.7
00F0:  GOTO   0DC
00F1:  BTFSC  21.6
00F2:  GOTO   0E4
00F3:  RETURN
....................  
....................  
.................... void setup() 
.................... { 
....................  
....................    setup_adc_ports(sAN0|sAN1|VSS_VDD); 
*
0012:  BCF    1F.6
0013:  BSF    03.5
0014:  BSF    1F.0
0015:  BSF    1F.1
0016:  BCF    1F.2
0017:  BCF    1F.3
....................    setup_adc(ADC_CLOCK_INTERNAL); 
0018:  BSF    1F.4
0019:  BSF    1F.5
001A:  BCF    1F.6
001B:  BCF    03.5
001C:  BSF    1F.7
001D:  BSF    1F.0
....................    setup_timer_0(RTCC_INTERNAL|RTCC_DIV_1); 
001E:  BSF    03.5
001F:  MOVF   01,W
0020:  ANDLW  C7
0021:  IORLW  08
0022:  MOVWF  01
....................    setup_timer_1(T1_DISABLED); 
0023:  BCF    03.5
0024:  CLRF   10
....................    setup_timer_2(T2_DISABLED,0,1); 
0025:  MOVLW  00
0026:  MOVWF  21
0027:  MOVWF  12
0028:  MOVLW  00
0029:  BSF    03.5
002A:  MOVWF  12
....................    setup_comparator(NC_NC); 
002B:  MOVLW  07
002C:  BCF    03.5
002D:  MOVWF  19
002E:  BSF    03.5
002F:  MOVF   05,W
0030:  MOVWF  05
0031:  MOVLW  06
0032:  BCF    03.5
0033:  MOVWF  20
0034:  DECFSZ 20,F
0035:  GOTO   034
0036:  NOP
0037:  MOVF   19,W
0038:  BCF    0C.3
....................    setup_vref(FALSE); 
0039:  BSF    03.5
003A:  CLRF   19
....................    setup_oscillator(OSC_8MHZ); 
003B:  MOVLW  71
003C:  MOVWF  0F
003D:  MOVF   0F,W
003E:  BCF    03.5
003F:  GOTO   2A0 (RETURN)
....................   
....................  
.................... } 
....................  
.................... void main() 
*
028C:  MOVF   03,W
028D:  ANDLW  1F
028E:  MOVWF  03
028F:  MOVLW  71
0290:  BSF    03.5
0291:  MOVWF  0F
0292:  MOVF   0F,W
0293:  BCF    05.2
0294:  BCF    03.5
0295:  BSF    05.2
0296:  BCF    1F.6
0297:  BSF    03.5
0298:  BCF    1F.0
0299:  BCF    1F.1
029A:  BCF    1F.2
029B:  BCF    1F.3
029C:  MOVLW  07
029D:  BCF    03.5
029E:  MOVWF  19
.................... { 
....................    int16 AdValue; 
....................    int8 Channel; 
....................    double Res_ADC_Val; 
....................    int8  V; 
....................     
....................    setup(); 
029F:  GOTO   012
....................     
....................    Channel=0; 
02A0:  CLRF   27
....................    while(1) 
....................    { 
....................           
....................  
....................          set_adc_channel(Channel); 
02A1:  RLF    27,W
02A2:  MOVWF  20
02A3:  RLF    20,F
02A4:  MOVLW  FC
02A5:  ANDWF  20,F
02A6:  MOVF   1F,W
02A7:  ANDLW  F3
02A8:  IORWF  20,W
02A9:  MOVWF  1F
....................          delay_us(50); 
02AA:  MOVLW  20
02AB:  MOVWF  20
02AC:  DECFSZ 20,F
02AD:  GOTO   2AC
02AE:  GOTO   2AF
02AF:  NOP
....................          AdValue=read_adc(); 
02B0:  BSF    1F.1
02B1:  BTFSC  1F.1
02B2:  GOTO   2B1
02B3:  BSF    03.5
02B4:  MOVF   1E,W
02B5:  BCF    03.5
02B6:  MOVWF  25
02B7:  MOVF   1E,W
02B8:  MOVWF  26
....................          //printf("Chan: %d=%Lu",Channel,AdValue); 
....................          Res_ADC_Val = AdValue * ADC_TO_VOLT ; 
02B9:  MOVF   26,W
02BA:  MOVWF  2E
02BB:  MOVF   25,W
02BC:  MOVWF  2D
02BD:  GOTO   040
02BE:  MOVF   23,W
02BF:  MOVWF  3B
02C0:  MOVF   22,W
02C1:  MOVWF  3A
02C2:  MOVF   21,W
02C3:  MOVWF  39
02C4:  MOVF   20,W
02C5:  MOVWF  38
02C6:  MOVLW  40
02C7:  MOVWF  3F
02C8:  MOVLW  65
02C9:  MOVWF  3E
02CA:  MOVLW  50
02CB:  MOVWF  3D
02CC:  MOVLW  76
02CD:  MOVWF  3C
02CE:  CALL   05D
02CF:  MOVF   23,W
02D0:  MOVWF  2B
02D1:  MOVF   22,W
02D2:  MOVWF  2A
02D3:  MOVF   21,W
02D4:  MOVWF  29
02D5:  MOVF   20,W
02D6:  MOVWF  28
....................          printf("ADC:%Lu -",AdValue); 
02D7:  CLRF   2D
02D8:  MOVF   2D,W
02D9:  CALL   004
02DA:  INCF   2D,F
02DB:  MOVWF  20
02DC:  MOVWF  38
02DD:  CALL   0D2
02DE:  MOVLW  04
02DF:  SUBWF  2D,W
02E0:  BTFSS  03.2
02E1:  GOTO   2D8
02E2:  MOVLW  10
02E3:  MOVWF  04
02E4:  MOVF   26,W
02E5:  MOVWF  2E
02E6:  MOVF   25,W
02E7:  MOVWF  2D
02E8:  GOTO   0F4
02E9:  MOVLW  20
02EA:  MOVWF  38
02EB:  CALL   0D2
02EC:  MOVLW  2D
02ED:  MOVWF  38
02EE:  CALL   0D2
....................          printf(" %.2f\r\n", Res_ADC_Val); 
02EF:  MOVLW  20
02F0:  MOVWF  38
02F1:  CALL   0D2
02F2:  MOVLW  89
02F3:  MOVWF  04
02F4:  MOVF   2B,W
02F5:  MOVWF  30
02F6:  MOVF   2A,W
02F7:  MOVWF  2F
02F8:  MOVF   29,W
02F9:  MOVWF  2E
02FA:  MOVF   28,W
02FB:  MOVWF  2D
02FC:  MOVLW  02
02FD:  MOVWF  31
02FE:  GOTO   19A
02FF:  MOVLW  0D
0300:  MOVWF  38
0301:  CALL   0D2
0302:  MOVLW  0A
0303:  MOVWF  38
0304:  CALL   0D2
....................  
....................           
....................       
....................          //printf("V:%d ",V); 
....................  
....................  
....................          delay_ms(250); 
0305:  MOVLW  FA
0306:  MOVWF  2D
0307:  GOTO   279
0308:  GOTO   2A1
....................        
....................    } 
....................     
....................     
.................... } 
0309:  SLEEP

Configuration Fuses:
   Word  1: 30C4   INTRC_IO NOWDT PUT NOMCLR NOPROTECT NOCPD NOBROWNOUT NOIESO NOFCMEN
